; Function Attrs: mustprogress nofree norecurse nosync nounwind willreturn memory(readwrite, inaccessiblemem: none) uwtable
define internal noundef i32 @config_input(ptr noundef readonly captures(none) %0) #2 {
  %2 = getelementptr inbounds nuw i8, ptr %0, i64 16
  %3 = load ptr, ptr %2, align 8, !tbaa !22
  %4 = getelementptr inbounds nuw i8, ptr %3, i64 72
  %5 = load ptr, ptr %4, align 8, !tbaa !4
  %6 = getelementptr inbounds nuw i8, ptr %5, i64 8
  %7 = load i32, ptr %6, align 8, !tbaa !34
  %8 = shl nsw i32 %7, 16
  %9 = sitofp i32 %8 to float
  %10 = getelementptr inbounds nuw i8, ptr %5, i64 16
  %11 = load float, ptr %10, align 8, !tbaa !69
  %12 = fmul nsz float %11, %9
  %13 = fmul nsz float %12, 7.812500e-03
  %14 = fptosi float %13 to i32
  %15 = getelementptr inbounds nuw i8, ptr %5, i64 24
  store i32 %14, ptr %15, align 8, !tbaa !52
  ret i32 0
}